target datalayout = "e-m:e-p270:32:32-p271:32:32-p272:64:64-i64:64-i128:128-f80:128-n8:16:32:64-S128"
target triple = "x86_64-pc-linux-gnu"

%struct.b2Vec2 = type { float, float }
%struct.b2Hull = type { [8 x %struct.b2Vec2], i32 }

@b2_lengthUnitsPerMeter = external global float, align 4
@b2Vec2_zero = internal constant %struct.b2Vec2 zeroinitializer, align 4

; Function Attrs: inlinehint nounwind uwtable
define internal float @b2Cross(<2 x float> %0, <2 x float> %1) #4 {
  %3 = alloca %struct.b2Vec2, align 4
  %4 = alloca %struct.b2Vec2, align 4
  store <2 x float> %0, ptr %3, align 4
  store <2 x float> %1, ptr %4, align 4
  %5 = getelementptr inbounds nuw %struct.b2Vec2, ptr %3, i32 0, i32 0
  %6 = load float, ptr %5, align 4, !tbaa !30
  %7 = getelementptr inbounds nuw %struct.b2Vec2, ptr %4, i32 0, i32 1
  %8 = load float, ptr %7, align 4, !tbaa !32
  %9 = fmul float %6, %8
  %10 = getelementptr inbounds nuw %struct.b2Vec2, ptr %3, i32 0, i32 1
  %11 = load float, ptr %10, align 4, !tbaa !32
  %12 = getelementptr inbounds nuw %struct.b2Vec2, ptr %4, i32 0, i32 0
  %13 = load float, ptr %12, align 4, !tbaa !30
  %14 = fmul float %11, %13
  %15 = fsub float %9, %14
  ret float %15
}

; Function Attrs: inlinehint nounwind uwtable
define internal <2 x float> @b2Normalize(<2 x float> %0) #4 {
  %2 = alloca %struct.b2Vec2, align 4
  %3 = alloca %struct.b2Vec2, align 4
  %4 = alloca float, align 4
  %5 = alloca i32, align 4
  %6 = alloca float, align 4
  store <2 x float> %0, ptr %3, align 4
  call void @llvm.lifetime.start.p0(i64 4, ptr %4) #6
  %7 = getelementptr inbounds nuw %struct.b2Vec2, ptr %3, i32 0, i32 0
  %8 = load float, ptr %7, align 4, !tbaa !30
  %9 = getelementptr inbounds nuw %struct.b2Vec2, ptr %3, i32 0, i32 0
  %10 = load float, ptr %9, align 4, !tbaa !30
  %11 = fmul float %8, %10
  %12 = getelementptr inbounds nuw %struct.b2Vec2, ptr %3, i32 0, i32 1
  %13 = load float, ptr %12, align 4, !tbaa !32
  %14 = getelementptr inbounds nuw %struct.b2Vec2, ptr %3, i32 0, i32 1
  %15 = load float, ptr %14, align 4, !tbaa !32
  %16 = fmul float %13, %15
  %17 = fadd float %11, %16
  %18 = call float @sqrtf(float noundef %17) #6, !tbaa !8
  store float %18, ptr %4, align 4, !tbaa !12
  %19 = load float, ptr %4, align 4, !tbaa !12
  %20 = fcmp olt float %19, 0x3E80000000000000
  br i1 %20, label %21, label %22

21:                                               ; preds = %1
  call void @llvm.memcpy.p0.p0.i64(ptr align 4 %2, ptr align 4 @b2Vec2_zero, i64 8, i1 false), !tbaa.struct !14
  store i32 1, ptr %5, align 4
  br label %35

22:                                               ; preds = %1
  call void @llvm.lifetime.start.p0(i64 4, ptr %6) #6
  %23 = load float, ptr %4, align 4, !tbaa !12
  %24 = fdiv float 1.000000e+00, %23
  store float %24, ptr %6, align 4, !tbaa !12
  %25 = getelementptr inbounds nuw %struct.b2Vec2, ptr %2, i32 0, i32 0
  %26 = load float, ptr %6, align 4, !tbaa !12
  %27 = getelementptr inbounds nuw %struct.b2Vec2, ptr %3, i32 0, i32 0
  %28 = load float, ptr %27, align 4, !tbaa !30
  %29 = fmul float %26, %28
  store float %29, ptr %25, align 4, !tbaa !30
  %30 = getelementptr inbounds nuw %struct.b2Vec2, ptr %2, i32 0, i32 1
  %31 = load float, ptr %6, align 4, !tbaa !12
  %32 = getelementptr inbounds nuw %struct.b2Vec2, ptr %3, i32 0, i32 1
  %33 = load float, ptr %32, align 4, !tbaa !32
  %34 = fmul float %31, %33
  store float %34, ptr %30, align 4, !tbaa !32
  store i32 1, ptr %5, align 4
  call void @llvm.lifetime.end.p0(i64 4, ptr %6) #6
  br label %35

35:                                               ; preds = %22, %21
  call void @llvm.lifetime.end.p0(i64 4, ptr %4) #6
  %36 = load <2 x float>, ptr %2, align 4
  ret <2 x float> %36
}

; Function Attrs: inlinehint nounwind uwtable
define internal <2 x float> @b2Sub(<2 x float> %0, <2 x float> %1) #4 {
  %3 = alloca %struct.b2Vec2, align 4
  %4 = alloca %struct.b2Vec2, align 4
  %5 = alloca %struct.b2Vec2, align 4
  store <2 x float> %0, ptr %4, align 4
  store <2 x float> %1, ptr %5, align 4
  %6 = getelementptr inbounds nuw %struct.b2Vec2, ptr %3, i32 0, i32 0
  %7 = getelementptr inbounds nuw %struct.b2Vec2, ptr %4, i32 0, i32 0
  %8 = load float, ptr %7, align 4, !tbaa !30
  %9 = getelementptr inbounds nuw %struct.b2Vec2, ptr %5, i32 0, i32 0
  %10 = load float, ptr %9, align 4, !tbaa !30
  %11 = fsub float %8, %10
  store float %11, ptr %6, align 4, !tbaa !30
  %12 = getelementptr inbounds nuw %struct.b2Vec2, ptr %3, i32 0, i32 1
  %13 = getelementptr inbounds nuw %struct.b2Vec2, ptr %4, i32 0, i32 1
  %14 = load float, ptr %13, align 4, !tbaa !32
  %15 = getelementptr inbounds nuw %struct.b2Vec2, ptr %5, i32 0, i32 1
  %16 = load float, ptr %15, align 4, !tbaa !32
  %17 = fsub float %14, %16
  store float %17, ptr %12, align 4, !tbaa !32
  %18 = load <2 x float>, ptr %3, align 4
  ret <2 x float> %18
}

; Function Attrs: nounwind uwtable
define internal void @b2RecurseHull(ptr dead_on_unwind noalias writable sret(%struct.b2Hull) align 4 %0, <2 x float> %1, <2 x float> %2, ptr noundef %3, i32 noundef %4) #0 {
  %6 = alloca %struct.b2Vec2, align 4
  %7 = alloca %struct.b2Vec2, align 4
  %8 = alloca ptr, align 8
  %9 = alloca i32, align 4
  %10 = alloca %struct.b2Vec2, align 4
  %11 = alloca %struct.b2Vec2, align 4
  %12 = alloca [8 x %struct.b2Vec2], align 16
  %13 = alloca i32, align 4
  %14 = alloca i32, align 4
  %15 = alloca float, align 4
  %16 = alloca %struct.b2Vec2, align 4
  %17 = alloca i32, align 4
  %18 = alloca float, align 4
  %19 = alloca %struct.b2Vec2, align 4
  %20 = alloca i32, align 4
  %21 = alloca %struct.b2Vec2, align 4
  %22 = alloca %struct.b2Hull, align 4
  %23 = alloca %struct.b2Hull, align 4
  %24 = alloca i32, align 4
  %25 = alloca i32, align 4
  store <2 x float> %1, ptr %6, align 4
  store <2 x float> %2, ptr %7, align 4
  store ptr %3, ptr %8, align 8, !tbaa !3
  store i32 %4, ptr %9, align 4, !tbaa !8
  %26 = getelementptr inbounds nuw %struct.b2Hull, ptr %0, i32 0, i32 1
  store i32 0, ptr %26, align 4, !tbaa !10
  %27 = load i32, ptr %9, align 4, !tbaa !8
  %28 = icmp eq i32 %27, 0
  br i1 %28, label %29, label %30

29:                                               ; preds = %5
  br label %165

30:                                               ; preds = %5
  call void @llvm.lifetime.start.p0(i64 8, ptr %10) #6
  %31 = load <2 x float>, ptr %7, align 4
  %32 = load <2 x float>, ptr %6, align 4
  %33 = call <2 x float> @b2Sub(<2 x float> %31, <2 x float> %32)
  store <2 x float> %33, ptr %11, align 4
  %34 = load <2 x float>, ptr %11, align 4
  %35 = call <2 x float> @b2Normalize(<2 x float> %34)
  store <2 x float> %35, ptr %10, align 4
  call void @llvm.lifetime.start.p0(i64 64, ptr %12) #6
  call void @llvm.lifetime.start.p0(i64 4, ptr %13) #6
  store i32 0, ptr %13, align 4, !tbaa !8
  call void @llvm.lifetime.start.p0(i64 4, ptr %14) #6
  store i32 0, ptr %14, align 4, !tbaa !8
  call void @llvm.lifetime.start.p0(i64 4, ptr %15) #6
  %36 = load ptr, ptr %8, align 8, !tbaa !3
  %37 = load i32, ptr %14, align 4, !tbaa !8
  %38 = sext i32 %37 to i64
  %39 = getelementptr inbounds %struct.b2Vec2, ptr %36, i64 %38
  %40 = load <2 x float>, ptr %39, align 4
  %41 = load <2 x float>, ptr %6, align 4
  %42 = call <2 x float> @b2Sub(<2 x float> %40, <2 x float> %41)
  store <2 x float> %42, ptr %16, align 4
  %43 = load <2 x float>, ptr %16, align 4
  %44 = load <2 x float>, ptr %10, align 4
  %45 = call float @b2Cross(<2 x float> %43, <2 x float> %44)
  store float %45, ptr %15, align 4, !tbaa !12
  %46 = load float, ptr %15, align 4, !tbaa !12
  %47 = fcmp ogt float %46, 0.000000e+00
  br i1 %47, label %48, label %57

48:                                               ; preds = %30
  %49 = load i32, ptr %13, align 4, !tbaa !8
  %50 = add nsw i32 %49, 1
  store i32 %50, ptr %13, align 4, !tbaa !8
  %51 = sext i32 %49 to i64
  %52 = getelementptr inbounds [8 x %struct.b2Vec2], ptr %12, i64 0, i64 %51
  %53 = load ptr, ptr %8, align 8, !tbaa !3
  %54 = load i32, ptr %14, align 4, !tbaa !8
  %55 = sext i32 %54 to i64
  %56 = getelementptr inbounds %struct.b2Vec2, ptr %53, i64 %55
  call void @llvm.memcpy.p0.p0.i64(ptr align 8 %52, ptr align 4 %56, i64 8, i1 false), !tbaa.struct !14
  br label %57

57:                                               ; preds = %48, %30
  call void @llvm.lifetime.start.p0(i64 4, ptr %17) #6
  store i32 1, ptr %17, align 4, !tbaa !8
  br label %58

58:                                               ; preds = %93, %57
  %59 = load i32, ptr %17, align 4, !tbaa !8
  %60 = load i32, ptr %9, align 4, !tbaa !8
  %61 = icmp slt i32 %59, %60
  br i1 %61, label %63, label %62

62:                                               ; preds = %58
  call void @llvm.lifetime.end.p0(i64 4, ptr %17) #6
  br label %96

63:                                               ; preds = %58
  call void @llvm.lifetime.start.p0(i64 4, ptr %18) #6
  %64 = load ptr, ptr %8, align 8, !tbaa !3
  %65 = load i32, ptr %17, align 4, !tbaa !8
  %66 = sext i32 %65 to i64
  %67 = getelementptr inbounds %struct.b2Vec2, ptr %64, i64 %66
  %68 = load <2 x float>, ptr %67, align 4
  %69 = load <2 x float>, ptr %6, align 4
  %70 = call <2 x float> @b2Sub(<2 x float> %68, <2 x float> %69)
  store <2 x float> %70, ptr %19, align 4
  %71 = load <2 x float>, ptr %19, align 4
  %72 = load <2 x float>, ptr %10, align 4
  %73 = call float @b2Cross(<2 x float> %71, <2 x float> %72)
  store float %73, ptr %18, align 4, !tbaa !12
  %74 = load float, ptr %18, align 4, !tbaa !12
  %75 = load float, ptr %15, align 4, !tbaa !12
  %76 = fcmp ogt float %74, %75
  br i1 %76, label %77, label %80

77:                                               ; preds = %63
  %78 = load i32, ptr %17, align 4, !tbaa !8
  store i32 %78, ptr %14, align 4, !tbaa !8
  %79 = load float, ptr %18, align 4, !tbaa !12
  store float %79, ptr %15, align 4, !tbaa !12
  br label %80

80:                                               ; preds = %77, %63
  %81 = load float, ptr %18, align 4, !tbaa !12
  %82 = fcmp ogt float %81, 0.000000e+00
  br i1 %82, label %83, label %92

83:                                               ; preds = %80
  %84 = load i32, ptr %13, align 4, !tbaa !8
  %85 = add nsw i32 %84, 1
  store i32 %85, ptr %13, align 4, !tbaa !8
  %86 = sext i32 %84 to i64
  %87 = getelementptr inbounds [8 x %struct.b2Vec2], ptr %12, i64 0, i64 %86
  %88 = load ptr, ptr %8, align 8, !tbaa !3
  %89 = load i32, ptr %17, align 4, !tbaa !8
  %90 = sext i32 %89 to i64
  %91 = getelementptr inbounds %struct.b2Vec2, ptr %88, i64 %90
  call void @llvm.memcpy.p0.p0.i64(ptr align 8 %87, ptr align 4 %91, i64 8, i1 false), !tbaa.struct !14
  br label %92

92:                                               ; preds = %83, %80
  call void @llvm.lifetime.end.p0(i64 4, ptr %18) #6
  br label %93

93:                                               ; preds = %92
  %94 = load i32, ptr %17, align 4, !tbaa !8
  %95 = add nsw i32 %94, 1
  store i32 %95, ptr %17, align 4, !tbaa !8
  br label %58, !llvm.loop !38

96:                                               ; preds = %62
  %97 = load float, ptr %15, align 4, !tbaa !12
  %98 = load float, ptr @b2_lengthUnitsPerMeter, align 4, !tbaa !12
  %99 = fmul float 0x3F747AE140000000, %98
  %100 = fmul float 2.000000e+00, %99
  %101 = fcmp olt float %97, %100
  br i1 %101, label %102, label %103

102:                                              ; preds = %96
  store i32 1, ptr %20, align 4
  br label %164

103:                                              ; preds = %96
  call void @llvm.lifetime.start.p0(i64 8, ptr %21) #6
  %104 = load ptr, ptr %8, align 8, !tbaa !3
  %105 = load i32, ptr %14, align 4, !tbaa !8
  %106 = sext i32 %105 to i64
  %107 = getelementptr inbounds %struct.b2Vec2, ptr %104, i64 %106
  call void @llvm.memcpy.p0.p0.i64(ptr align 4 %21, ptr align 4 %107, i64 8, i1 false), !tbaa.struct !14
  call void @llvm.lifetime.start.p0(i64 68, ptr %22) #6
  %108 = getelementptr inbounds [8 x %struct.b2Vec2], ptr %12, i64 0, i64 0
  %109 = load i32, ptr %13, align 4, !tbaa !8
  %110 = load <2 x float>, ptr %6, align 4
  %111 = load <2 x float>, ptr %21, align 4
  call void @b2RecurseHull(ptr dead_on_unwind writable sret(%struct.b2Hull) align 4 %22, <2 x float> %110, <2 x float> %111, ptr noundef %108, i32 noundef %109)
  call void @llvm.lifetime.start.p0(i64 68, ptr %23) #6
  %112 = getelementptr inbounds [8 x %struct.b2Vec2], ptr %12, i64 0, i64 0
  %113 = load i32, ptr %13, align 4, !tbaa !8
  %114 = load <2 x float>, ptr %21, align 4
  %115 = load <2 x float>, ptr %7, align 4
  call void @b2RecurseHull(ptr dead_on_unwind writable sret(%struct.b2Hull) align 4 %23, <2 x float> %114, <2 x float> %115, ptr noundef %112, i32 noundef %113)
  call void @llvm.lifetime.start.p0(i64 4, ptr %24) #6
  store i32 0, ptr %24, align 4, !tbaa !8
  br label %116

116:                                              ; preds = %133, %103
  %117 = load i32, ptr %24, align 4, !tbaa !8
  %118 = getelementptr inbounds nuw %struct.b2Hull, ptr %22, i32 0, i32 1
  %119 = load i32, ptr %118, align 4, !tbaa !10
  %120 = icmp slt i32 %117, %119
  br i1 %120, label %122, label %121

121:                                              ; preds = %116
  store i32 5, ptr %20, align 4
  call void @llvm.lifetime.end.p0(i64 4, ptr %24) #6
  br label %136

122:                                              ; preds = %116
  %123 = getelementptr inbounds nuw %struct.b2Hull, ptr %0, i32 0, i32 0
  %124 = getelementptr inbounds nuw %struct.b2Hull, ptr %0, i32 0, i32 1
  %125 = load i32, ptr %124, align 4, !tbaa !10
  %126 = add nsw i32 %125, 1
  store i32 %126, ptr %124, align 4, !tbaa !10
  %127 = sext i32 %125 to i64
  %128 = getelementptr inbounds [8 x %struct.b2Vec2], ptr %123, i64 0, i64 %127
  %129 = getelementptr inbounds nuw %struct.b2Hull, ptr %22, i32 0, i32 0
  %130 = load i32, ptr %24, align 4, !tbaa !8
  %131 = sext i32 %130 to i64
  %132 = getelementptr inbounds [8 x %struct.b2Vec2], ptr %129, i64 0, i64 %131
  call void @llvm.memcpy.p0.p0.i64(ptr align 4 %128, ptr align 4 %132, i64 8, i1 false), !tbaa.struct !14
  br label %133

133:                                              ; preds = %122
  %134 = load i32, ptr %24, align 4, !tbaa !8
  %135 = add nsw i32 %134, 1
  store i32 %135, ptr %24, align 4, !tbaa !8
  br label %116, !llvm.loop !39

136:                                              ; preds = %121
  %137 = getelementptr inbounds nuw %struct.b2Hull, ptr %0, i32 0, i32 0
  %138 = getelementptr inbounds nuw %struct.b2Hull, ptr %0, i32 0, i32 1
  %139 = load i32, ptr %138, align 4, !tbaa !10
  %140 = add nsw i32 %139, 1
  store i32 %140, ptr %138, align 4, !tbaa !10
  %141 = sext i32 %139 to i64
  %142 = getelementptr inbounds [8 x %struct.b2Vec2], ptr %137, i64 0, i64 %141
  call void @llvm.memcpy.p0.p0.i64(ptr align 4 %142, ptr align 4 %21, i64 8, i1 false), !tbaa.struct !14
  call void @llvm.lifetime.start.p0(i64 4, ptr %25) #6
  store i32 0, ptr %25, align 4, !tbaa !8
  br label %143

143:                                              ; preds = %160, %136
  %144 = load i32, ptr %25, align 4, !tbaa !8
  %145 = getelementptr inbounds nuw %struct.b2Hull, ptr %23, i32 0, i32 1
  %146 = load i32, ptr %145, align 4, !tbaa !10
  %147 = icmp slt i32 %144, %146
  br i1 %147, label %149, label %148

148:                                              ; preds = %143
  store i32 8, ptr %20, align 4
  call void @llvm.lifetime.end.p0(i64 4, ptr %25) #6
  br label %163

149:                                              ; preds = %143
  %150 = getelementptr inbounds nuw %struct.b2Hull, ptr %0, i32 0, i32 0
  %151 = getelementptr inbounds nuw %struct.b2Hull, ptr %0, i32 0, i32 1
  %152 = load i32, ptr %151, align 4, !tbaa !10
  %153 = add nsw i32 %152, 1
  store i32 %153, ptr %151, align 4, !tbaa !10
  %154 = sext i32 %152 to i64
  %155 = getelementptr inbounds [8 x %struct.b2Vec2], ptr %150, i64 0, i64 %154
  %156 = getelementptr inbounds nuw %struct.b2Hull, ptr %23, i32 0, i32 0
  %157 = load i32, ptr %25, align 4, !tbaa !8
  %158 = sext i32 %157 to i64
  %159 = getelementptr inbounds [8 x %struct.b2Vec2], ptr %156, i64 0, i64 %158
  call void @llvm.memcpy.p0.p0.i64(ptr align 4 %155, ptr align 4 %159, i64 8, i1 false), !tbaa.struct !14
  br label %160

160:                                              ; preds = %149
  %161 = load i32, ptr %25, align 4, !tbaa !8
  %162 = add nsw i32 %161, 1
  store i32 %162, ptr %25, align 4, !tbaa !8
  br label %143, !llvm.loop !40

163:                                              ; preds = %148
  store i32 1, ptr %20, align 4
  call void @llvm.lifetime.end.p0(i64 68, ptr %23) #6
  call void @llvm.lifetime.end.p0(i64 68, ptr %22) #6
  call void @llvm.lifetime.end.p0(i64 8, ptr %21) #6
  br label %164

164:                                              ; preds = %163, %102
  call void @llvm.lifetime.end.p0(i64 4, ptr %15) #6
  call void @llvm.lifetime.end.p0(i64 4, ptr %14) #6
  call void @llvm.lifetime.end.p0(i64 4, ptr %13) #6
  call void @llvm.lifetime.end.p0(i64 64, ptr %12) #6
  call void @llvm.lifetime.end.p0(i64 8, ptr %10) #6
  br label %165

165:                                              ; preds = %164, %29
  ret void
}