; Function Attrs: nofree nosync nounwind memory(read, argmem: readwrite, inaccessiblemem: none) uwtable
define internal fastcc void @b2RecurseHull(ptr dead_on_unwind noalias nonnull writable align 4 captures(none) initializes((64, 68)) %0, <2 x float> %1, <2 x float> %2, ptr noundef nonnull readonly captures(none) %3, i32 noundef %4) unnamed_addr #0 {
  %6 = alloca [8 x %struct.b2Vec2], align 16
  %7 = alloca %struct.b2Hull, align 4
  %8 = alloca %struct.b2Hull, align 4
  %9 = getelementptr inbounds nuw i8, ptr %0, i64 64
  store i32 0, ptr %9, align 4, !tbaa !3
  %10 = icmp eq i32 %4, 0
  br i1 %10, label %84, label %11

11:                                               ; preds = %5
  %12 = fsub <2 x float> %2, %1
  %13 = fsub <2 x float> %2, %1
  %14 = extractelement <2 x float> %13, i64 1
  %15 = fmul <2 x float> %12, %12
  %16 = extractelement <2 x float> %15, i64 0
  %17 = fmul float %14, %14
  %18 = fadd float %16, %17
  %sqrt.i = tail call float @llvm.sqrt.f32(float %18)
  %19 = fcmp olt float %sqrt.i, 0x3E80000000000000
  br i1 %19, label %b2Normalize.exit, label %20

20:                                               ; preds = %11
  %21 = extractelement <2 x float> %12, i64 0
  %22 = fdiv float 1.000000e+00, %sqrt.i
  %23 = fmul float %21, %22
  %.sroa.012.0.vec.insert.i = insertelement <2 x float> poison, float %23, i64 0
  %24 = fmul float %14, %22
  %.sroa.012.4.vec.insert.i = insertelement <2 x float> %.sroa.012.0.vec.insert.i, float %24, i64 1
  br label %b2Normalize.exit

b2Normalize.exit:                                 ; preds = %11, %20
  %.sroa.012.0.i = phi <2 x float> [ %.sroa.012.4.vec.insert.i, %20 ], [ zeroinitializer, %11 ]
  call void @llvm.lifetime.start.p0(i64 64, ptr nonnull %6) #4
  %25 = load <2 x float>, ptr %3, align 4
  %26 = fsub <2 x float> %25, %1
  %27 = extractelement <2 x float> %26, i64 0
  %28 = fsub <2 x float> %25, %1
  %.sroa.0.4.vec.extract.i61 = extractelement <2 x float> %.sroa.012.0.i, i64 1
  %29 = fmul float %.sroa.0.4.vec.extract.i61, %27
  %shift = shufflevector <2 x float> %28, <2 x float> poison, <2 x i32> <i32 1, i32 poison>
  %30 = fmul <2 x float> %.sroa.012.0.i, %shift
  %31 = extractelement <2 x float> %30, i64 0
  %32 = fsub float %29, %31
  %33 = fcmp ogt float %32, 0.000000e+00
  br i1 %33, label %34, label %35

34:                                               ; preds = %b2Normalize.exit
  store <2 x float> %25, ptr %6, align 16
  br label %35

35:                                               ; preds = %34, %b2Normalize.exit
  %.044 = phi i32 [ 1, %34 ], [ 0, %b2Normalize.exit ]
  %36 = icmp sgt i32 %4, 1
  br i1 %36, label %.lr.ph.preheader, label %._crit_edge

.lr.ph.preheader:                                 ; preds = %35
  %wide.trip.count = zext nneg i32 %4 to i64
  br label %.lr.ph

._crit_edge.loopexit:                             ; preds = %58
  %37 = zext nneg i32 %.146 to i64
  br label %._crit_edge

._crit_edge:                                      ; preds = %._crit_edge.loopexit, %35
  %.047.lcssa = phi float [ %32, %35 ], [ %.148, %._crit_edge.loopexit ]
  %.045.lcssa = phi i64 [ 0, %35 ], [ %37, %._crit_edge.loopexit ]
  %.1.lcssa = phi i32 [ %.044, %35 ], [ %.2, %._crit_edge.loopexit ]
  %38 = load float, ptr @b2_lengthUnitsPerMeter, align 4, !tbaa !8
  %39 = fmul float %38, 0x3F747AE140000000
  %40 = fmul float %39, 2.000000e+00
  %41 = fcmp olt float %.047.lcssa, %40
  br i1 %41, label %83, label %59

.lr.ph:                                           ; preds = %.lr.ph.preheader, %58
  %indvars.iv = phi i64 [ 1, %.lr.ph.preheader ], [ %indvars.iv.next, %58 ]
  %.177 = phi i32 [ %.044, %.lr.ph.preheader ], [ %.2, %58 ]
  %.04576 = phi i32 [ 0, %.lr.ph.preheader ], [ %.146, %58 ]
  %.04775 = phi float [ %32, %.lr.ph.preheader ], [ %.148, %58 ]
  %42 = getelementptr inbounds nuw %struct.b2Vec2, ptr %3, i64 %indvars.iv
  %43 = load <2 x float>, ptr %42, align 4
  %44 = fsub <2 x float> %43, %1
  %45 = extractelement <2 x float> %44, i64 0
  %46 = fsub <2 x float> %43, %1
  %47 = fmul float %.sroa.0.4.vec.extract.i61, %45
  %shift99 = shufflevector <2 x float> %46, <2 x float> poison, <2 x i32> <i32 1, i32 poison>
  %48 = fmul <2 x float> %.sroa.012.0.i, %shift99
  %49 = extractelement <2 x float> %48, i64 0
  %50 = fsub float %47, %49
  %51 = fcmp ogt float %50, %.04775
  %.148 = select i1 %51, float %50, float %.04775
  %52 = trunc nuw nsw i64 %indvars.iv to i32
  %.146 = select i1 %51, i32 %52, i32 %.04576
  %53 = fcmp ogt float %50, 0.000000e+00
  br i1 %53, label %54, label %58

54:                                               ; preds = %.lr.ph
  %55 = add nsw i32 %.177, 1
  %56 = sext i32 %.177 to i64
  %57 = getelementptr inbounds [8 x %struct.b2Vec2], ptr %6, i64 0, i64 %56
  store <2 x float> %43, ptr %57, align 8
  br label %58

58:                                               ; preds = %54, %.lr.ph
  %.2 = phi i32 [ %55, %54 ], [ %.177, %.lr.ph ]
  %indvars.iv.next = add nuw nsw i64 %indvars.iv, 1
  %exitcond.not = icmp eq i64 %indvars.iv.next, %wide.trip.count
  br i1 %exitcond.not, label %._crit_edge.loopexit, label %.lr.ph, !llvm.loop !20

59:                                               ; preds = %._crit_edge
  %60 = getelementptr inbounds nuw %struct.b2Vec2, ptr %3, i64 %.045.lcssa
  %.sroa.0.0.copyload = load <2 x float>, ptr %60, align 4
  call void @llvm.lifetime.start.p0(i64 68, ptr nonnull %7) #4
  call fastcc void @b2RecurseHull(ptr dead_on_unwind noalias writable align 4 %7, <2 x float> %1, <2 x float> %.sroa.0.0.copyload, ptr noundef %6, i32 noundef %.1.lcssa)
  call void @llvm.lifetime.start.p0(i64 68, ptr nonnull %8) #4
  call fastcc void @b2RecurseHull(ptr dead_on_unwind noalias writable align 4 %8, <2 x float> %.sroa.0.0.copyload, <2 x float> %2, ptr noundef %6, i32 noundef %.1.lcssa)
  %61 = getelementptr inbounds nuw i8, ptr %7, i64 64
  %62 = load i32, ptr %61, align 4, !tbaa !3
  %63 = icmp sgt i32 %62, 0
  br i1 %63, label %.lr.ph82.preheader, label %._crit_edge83

.lr.ph82.preheader:                               ; preds = %59
  %wide.trip.count92 = zext nneg i32 %62 to i64
  br label %.lr.ph82

._crit_edge83.loopexit:                           ; preds = %.lr.ph82
  %.pre = load i32, ptr %9, align 4, !tbaa !3
  br label %._crit_edge83

._crit_edge83:                                    ; preds = %._crit_edge83.loopexit, %59
  %64 = phi i32 [ %.pre, %._crit_edge83.loopexit ], [ 0, %59 ]
  %65 = add nsw i32 %64, 1
  store i32 %65, ptr %9, align 4, !tbaa !3
  %66 = sext i32 %64 to i64
  %67 = getelementptr inbounds [8 x %struct.b2Vec2], ptr %0, i64 0, i64 %66
  store <2 x float> %.sroa.0.0.copyload, ptr %67, align 4
  %68 = getelementptr inbounds nuw i8, ptr %8, i64 64
  %69 = load i32, ptr %68, align 4, !tbaa !3
  %70 = icmp sgt i32 %69, 0
  br i1 %70, label %.lr.ph86.preheader, label %._crit_edge87

.lr.ph86.preheader:                               ; preds = %._crit_edge83
  %wide.trip.count97 = zext nneg i32 %69 to i64
  br label %.lr.ph86

.lr.ph82:                                         ; preds = %.lr.ph82.preheader, %.lr.ph82
  %indvars.iv89 = phi i64 [ 0, %.lr.ph82.preheader ], [ %indvars.iv.next90, %.lr.ph82 ]
  %71 = load i32, ptr %9, align 4, !tbaa !3
  %72 = add nsw i32 %71, 1
  store i32 %72, ptr %9, align 4, !tbaa !3
  %73 = sext i32 %71 to i64
  %74 = getelementptr inbounds [8 x %struct.b2Vec2], ptr %0, i64 0, i64 %73
  %75 = getelementptr inbounds nuw [8 x %struct.b2Vec2], ptr %7, i64 0, i64 %indvars.iv89
  %76 = load i64, ptr %75, align 4
  store i64 %76, ptr %74, align 4
  %indvars.iv.next90 = add nuw nsw i64 %indvars.iv89, 1
  %exitcond93.not = icmp eq i64 %indvars.iv.next90, %wide.trip.count92
  br i1 %exitcond93.not, label %._crit_edge83.loopexit, label %.lr.ph82, !llvm.loop !21

._crit_edge87:                                    ; preds = %.lr.ph86, %._crit_edge83
  call void @llvm.lifetime.end.p0(i64 68, ptr nonnull %8) #4
  call void @llvm.lifetime.end.p0(i64 68, ptr nonnull %7) #4
  br label %83

.lr.ph86:                                         ; preds = %.lr.ph86.preheader, %.lr.ph86
  %indvars.iv94 = phi i64 [ 0, %.lr.ph86.preheader ], [ %indvars.iv.next95, %.lr.ph86 ]
  %77 = load i32, ptr %9, align 4, !tbaa !3
  %78 = add nsw i32 %77, 1
  store i32 %78, ptr %9, align 4, !tbaa !3
  %79 = sext i32 %77 to i64
  %80 = getelementptr inbounds [8 x %struct.b2Vec2], ptr %0, i64 0, i64 %79
  %81 = getelementptr inbounds nuw [8 x %struct.b2Vec2], ptr %8, i64 0, i64 %indvars.iv94
  %82 = load i64, ptr %81, align 4
  store i64 %82, ptr %80, align 4
  %indvars.iv.next95 = add nuw nsw i64 %indvars.iv94, 1
  %exitcond98.not = icmp eq i64 %indvars.iv.next95, %wide.trip.count97
  br i1 %exitcond98.not, label %._crit_edge87, label %.lr.ph86, !llvm.loop !22

83:                                               ; preds = %._crit_edge, %._crit_edge87
  call void @llvm.lifetime.end.p0(i64 64, ptr nonnull %6) #4
  br label %84

84:                                               ; preds = %5, %83
  ret void
}